; Function Attrs: mustprogress nounwind uwtable
define hidden void @_ZN6hermes9IRPrinter19printFunctionHeaderEPNS_8FunctionE(ptr noundef nonnull align 8 dereferenceable(208) %this, ptr noundef nonnull %F) unnamed_addr #0 align 2 {
entry:
  %defKindStr = alloca %"class.std::__cxx11::basic_string", align 8
  call void @_ZNK6hermes8Function20getDefinitionKindStrB5cxx11Eb(ptr nonnull sret(%"class.std::__cxx11::basic_string") align 8 %defKindStr, ptr noundef nonnull align 8 dereferenceable(304) %F, i1 noundef zeroext false) #13
  %os = getelementptr inbounds i8, ptr %this, i64 24
  %0 = load ptr, ptr %os, align 8
  %call.i = call noundef ptr @_ZNKSt7__cxx1112basic_stringIcSt11char_traitsIcESaIcEE4dataEv(ptr noundef nonnull align 8 dereferenceable(32) %defKindStr) #13
  %call2.i = call noundef i64 @_ZNKSt7__cxx1112basic_stringIcSt11char_traitsIcESaIcEE6lengthEv(ptr noundef nonnull align 8 dereferenceable(32) %defKindStr) #13
  %call3.i = call noundef nonnull align 8 dereferenceable(36) ptr @_ZN4llvh11raw_ostream5writeEPKcm(ptr noundef nonnull align 8 dereferenceable(36) %0, ptr noundef %call.i, i64 noundef %call2.i) #13
  %OutBufEnd.i5.i = getelementptr inbounds i8, ptr %call3.i, i64 16
  %1 = load ptr, ptr %OutBufEnd.i5.i, align 8
  %OutBufCur.i6.i = getelementptr inbounds i8, ptr %call3.i, i64 24
  %2 = load ptr, ptr %OutBufCur.i6.i, align 8
  %cmp.i.i = icmp eq ptr %1, %2
  br i1 %cmp.i.i, label %if.then.i.i, label %if.then4.i.i

if.then.i.i:                                      ; preds = %entry
  %call3.i.i = call noundef nonnull align 8 dereferenceable(36) ptr @_ZN4llvh11raw_ostream5writeEPKcm(ptr noundef nonnull align 8 dereferenceable(36) %call3.i, ptr noundef nonnull @.str.3, i64 noundef 1) #13
  br label %_ZN4llvh11raw_ostreamlsEPKc.exit

if.then4.i.i:                                     ; preds = %entry
  store i8 32, ptr %2, align 1
  %3 = load ptr, ptr %OutBufCur.i6.i, align 8
  %add.ptr.i.i = getelementptr inbounds i8, ptr %3, i64 1
  store ptr %add.ptr.i.i, ptr %OutBufCur.i6.i, align 8
  br label %_ZN4llvh11raw_ostreamlsEPKc.exit

_ZN4llvh11raw_ostreamlsEPKc.exit:                 ; preds = %if.then.i.i, %if.then4.i.i
  call void @_ZN6hermes9IRPrinter17printFunctionNameEPNS_8FunctionENS0_19PrintFunctionParamsE(ptr noundef nonnull align 8 dereferenceable(208) %this, ptr noundef nonnull %F, i32 noundef 1)
  %valueType.i = getelementptr inbounds i8, ptr %F, i64 18
  %retval.sroa.0.0.copyload.i = load i32, ptr %valueType.i, align 2
  %vtable = load ptr, ptr %this, align 8
  %vfn = getelementptr inbounds i8, ptr %vtable, i64 40
  %4 = load ptr, ptr %vfn, align 8
  call void %4(ptr noundef nonnull align 8 dereferenceable(208) %this, i32 %retval.sroa.0.0.copyload.i) #13
  call void @_ZNSt7__cxx1112basic_stringIcSt11char_traitsIcESaIcEED1Ev(ptr noundef nonnull align 8 dereferenceable(32) %defKindStr) #13
  ret void
}